; Function Attrs: nounwind uwtable
define dso_local range(i32 -1, 1) i32 @zend_update_static_property_bool(ptr noundef %0, ptr noundef readonly captures(none) %1, i64 noundef %2, i64 noundef %3) local_unnamed_addr #2 {
zend_update_static_property.exit:
  %4 = alloca %struct._zval_struct, align 8
  call void @llvm.lifetime.start.p0(i64 16, ptr nonnull %4) #34
  %.not = icmp eq i64 %3, 0
  %5 = select i1 %.not, i32 2, i32 3
  %6 = getelementptr inbounds nuw i8, ptr %4, i64 8
  store i32 %5, ptr %6, align 8, !tbaa !42
  %7 = and i64 %2, -8
  %8 = add i64 %7, 32
  %9 = tail call noalias ptr @_emalloc(i64 noundef %8) #37
  store i32 1, ptr %9, align 4, !tbaa !43
  %10 = getelementptr inbounds nuw i8, ptr %9, i64 4
  store i32 22, ptr %10, align 4, !tbaa !42
  %11 = getelementptr inbounds nuw i8, ptr %9, i64 8
  store i64 0, ptr %11, align 8, !tbaa !155
  %12 = getelementptr inbounds nuw i8, ptr %9, i64 16
  store i64 %2, ptr %12, align 8, !tbaa !96
  %13 = getelementptr inbounds nuw i8, ptr %9, i64 24
  tail call void @llvm.memcpy.p0.p0.i64(ptr nonnull align 8 %13, ptr readonly align 1 %1, i64 %2, i1 false)
  %14 = getelementptr inbounds nuw [1 x i8], ptr %13, i64 0, i64 %2
  store i8 0, ptr %14, align 1, !tbaa !42
  %15 = call i32 @zend_update_static_property_ex(ptr noundef %0, ptr noundef nonnull %9, ptr noundef nonnull %4)
  call void @_efree(ptr noundef nonnull %9) #34
  call void @llvm.lifetime.end.p0(i64 16, ptr nonnull %4) #34
  ret i32 %15
}